target datalayout = "e-m:e-p270:32:32-p271:32:32-p272:64:64-i64:64-i128:128-f80:128-n8:16:32:64-S128"
target triple = "x86_64-pc-linux-gnu"

%union.pthread_mutex_t = type { %struct.__pthread_mutex_s }
%struct.__pthread_mutex_s = type { i32, i32, i32, i32, i32, i16, i16, %struct.__pthread_internal_list }
%struct.__pthread_internal_list = type { ptr, ptr }
%struct.gres_state = type { i32, i32, ptr, ptr, i32 }
%struct.slurm_gres_context = type { ptr, i32, ptr, ptr, i32, ptr, ptr, %struct.slurm_gres_ops, i32, ptr, i64 }
%struct.slurm_gres_ops = type { ptr, ptr, ptr, ptr, ptr, ptr, ptr, ptr, ptr, ptr, ptr }
%struct.gres_node_state = type { ptr, i64, i64, i8, i8, i64, ptr, i64, ptr, i16, i32, ptr, ptr, ptr, ptr, ptr, ptr, ptr, ptr, i16, ptr, ptr, ptr, ptr }
%struct.node_record = type { ptr, ptr, i16, i64, i64, ptr, ptr, ptr, i16, ptr, i16, i16, i32, i32, i64, ptr, i16, i16, ptr, ptr, ptr, ptr, ptr, i64, i64, ptr, ptr, ptr, ptr, i32, ptr, ptr, i64, i64, i32, ptr, i64, ptr, i32, i16, ptr, ptr, i32, ptr, i32, i8, ptr, i32, i16, i16, ptr, i16, i64, i16, i64, ptr, i64, i32, i16, i64, i16, ptr, i16, i64, ptr, i64, i16, i32, i16, ptr, ptr, ptr, i16, i32, i16, i16, i32, ptr, i16, i32 }

@gres_context_lock = internal global %union.pthread_mutex_t zeroinitializer, align 8
@.str.6 = private unnamed_addr constant [29 x i8] c"%s: pthread_mutex_lock(): %m\00", align 1
@gres_context_cnt = internal global i32 -1, align 4
@gres_context = internal global ptr null, align 8
@.str.16 = private unnamed_addr constant [31 x i8] c"%s: pthread_mutex_unlock(): %m\00", align 1
@__func__.gres_node_remove = private unnamed_addr constant [17 x i8] c"gres_node_remove\00", align 1

; Function Attrs: nounwind uwtable
define dso_local void @gres_node_remove(ptr noundef %0) #0 {
  %2 = alloca ptr, align 8
  %3 = alloca i32, align 4
  %4 = alloca i32, align 4
  %5 = alloca i32, align 4
  %6 = alloca ptr, align 8
  %7 = alloca ptr, align 8
  %8 = alloca i32, align 4
  store ptr %0, ptr %2, align 8
  %9 = load ptr, ptr %2, align 8
  %10 = getelementptr inbounds nuw %struct.node_record, ptr %9, i32 0, i32 28
  %11 = load ptr, ptr %10, align 8
  %12 = icmp ne ptr %11, null
  br i1 %12, label %14, label %13

13:                                               ; preds = %1
  br label %76

14:                                               ; preds = %1
  br label %15

15:                                               ; preds = %14
  call void @llvm.lifetime.start.p0(i64 4, ptr %3) #11
  %16 = call i32 @pthread_mutex_lock(ptr noundef @gres_context_lock) #11
  store i32 %16, ptr %3, align 4
  %17 = load i32, ptr %3, align 4
  %18 = icmp ne i32 %17, 0
  br i1 %18, label %19, label %22

19:                                               ; preds = %15
  %20 = load i32, ptr %3, align 4
  %21 = call ptr @__errno_location() #12
  store i32 %20, ptr %21, align 4
  call void (ptr, ...) @fatal_abort(ptr noundef @.str.6, ptr noundef @__func__.gres_node_remove) #13
  unreachable

22:                                               ; preds = %15
  call void @llvm.lifetime.end.p0(i64 4, ptr %3) #11
  br label %23

23:                                               ; preds = %22
  call void @llvm.lifetime.start.p0(i64 4, ptr %4) #11
  store i32 0, ptr %4, align 4
  br label %24

24:                                               ; preds = %64, %23
  %25 = load i32, ptr %4, align 4
  %26 = load i32, ptr @gres_context_cnt, align 4
  %27 = icmp slt i32 %25, %26
  br i1 %27, label %29, label %28

28:                                               ; preds = %24
  store i32 4, ptr %5, align 4
  call void @llvm.lifetime.end.p0(i64 4, ptr %4) #11
  br label %67

29:                                               ; preds = %24
  call void @llvm.lifetime.start.p0(i64 8, ptr %6) #11
  %30 = load ptr, ptr %2, align 8
  %31 = getelementptr inbounds nuw %struct.node_record, ptr %30, i32 0, i32 28
  %32 = load ptr, ptr %31, align 8
  %33 = load ptr, ptr @gres_context, align 8
  %34 = load i32, ptr %4, align 4
  %35 = sext i32 %34 to i64
  %36 = getelementptr inbounds %struct.slurm_gres_context, ptr %33, i64 %35
  %37 = getelementptr inbounds nuw %struct.slurm_gres_context, ptr %36, i32 0, i32 8
  %38 = call ptr @list_find_first(ptr noundef %32, ptr noundef @gres_find_id, ptr noundef %37)
  store ptr %38, ptr %6, align 8
  %39 = icmp ne ptr %38, null
  br i1 %39, label %41, label %40

40:                                               ; preds = %29
  store i32 6, ptr %5, align 4
  br label %61

41:                                               ; preds = %29
  %42 = load ptr, ptr %6, align 8
  %43 = getelementptr inbounds nuw %struct.gres_state, ptr %42, i32 0, i32 2
  %44 = load ptr, ptr %43, align 8
  %45 = icmp ne ptr %44, null
  br i1 %45, label %46, label %60

46:                                               ; preds = %41
  call void @llvm.lifetime.start.p0(i64 8, ptr %7) #11
  %47 = load ptr, ptr %6, align 8
  %48 = getelementptr inbounds nuw %struct.gres_state, ptr %47, i32 0, i32 2
  %49 = load ptr, ptr %48, align 8
  store ptr %49, ptr %7, align 8
  %50 = load ptr, ptr %7, align 8
  %51 = getelementptr inbounds nuw %struct.gres_node_state, ptr %50, i32 0, i32 2
  %52 = load i64, ptr %51, align 8
  %53 = load ptr, ptr @gres_context, align 8
  %54 = load i32, ptr %4, align 4
  %55 = sext i32 %54 to i64
  %56 = getelementptr inbounds %struct.slurm_gres_context, ptr %53, i64 %55
  %57 = getelementptr inbounds nuw %struct.slurm_gres_context, ptr %56, i32 0, i32 10
  %58 = load i64, ptr %57, align 8
  %59 = sub i64 %58, %52
  store i64 %59, ptr %57, align 8
  call void @llvm.lifetime.end.p0(i64 8, ptr %7) #11
  br label %60

60:                                               ; preds = %46, %41
  store i32 0, ptr %5, align 4
  br label %61

61:                                               ; preds = %60, %40
  call void @llvm.lifetime.end.p0(i64 8, ptr %6) #11
  %62 = load i32, ptr %5, align 4
  switch i32 %62, label %77 [
    i32 0, label %63
    i32 6, label %64
  ]

63:                                               ; preds = %61
  br label %64

64:                                               ; preds = %63, %61
  %65 = load i32, ptr %4, align 4
  %66 = add nsw i32 %65, 1
  store i32 %66, ptr %4, align 4
  br label %24, !llvm.loop !61

67:                                               ; preds = %28
  br label %68

68:                                               ; preds = %67
  call void @llvm.lifetime.start.p0(i64 4, ptr %8) #11
  %69 = call i32 @pthread_mutex_unlock(ptr noundef @gres_context_lock) #11
  store i32 %69, ptr %8, align 4
  %70 = load i32, ptr %8, align 4
  %71 = icmp ne i32 %70, 0
  br i1 %71, label %72, label %75

72:                                               ; preds = %68
  %73 = load i32, ptr %8, align 4
  %74 = call ptr @__errno_location() #12
  store i32 %73, ptr %74, align 4
  call void (ptr, ...) @fatal_abort(ptr noundef @.str.16, ptr noundef @__func__.gres_node_remove) #13
  unreachable

75:                                               ; preds = %68
  call void @llvm.lifetime.end.p0(i64 4, ptr %8) #11
  br label %76

76:                                               ; preds = %13, %75
  ret void

77:                                               ; preds = %61
  unreachable
}