; Function Attrs: nounwind uwtable
define dso_local void @gres_node_remove(ptr noundef readonly captures(none) %0) local_unnamed_addr #2 {
  %2 = getelementptr inbounds nuw i8, ptr %0, i64 200
  %3 = load ptr, ptr %2, align 8
  %.not = icmp eq ptr %3, null
  br i1 %.not, label %31, label %4

4:                                                ; preds = %1
  %5 = tail call i32 @pthread_mutex_lock(ptr noundef nonnull @gres_context_lock) #28
  %.not16 = icmp eq i32 %5, 0
  br i1 %.not16, label %.preheader, label %8

.preheader:                                       ; preds = %4
  %6 = load i32, ptr @gres_context_cnt, align 4
  %7 = icmp sgt i32 %6, 0
  br i1 %7, label %.lr.ph, label %._crit_edge

8:                                                ; preds = %4
  %9 = tail call ptr @__errno_location() #29
  store i32 %5, ptr %9, align 4
  tail call void (ptr, ...) @fatal_abort(ptr noundef nonnull @.str.6, ptr noundef nonnull @__func__.gres_node_remove) #30
  unreachable

._crit_edge:                                      ; preds = %25, %.preheader
  %10 = tail call i32 @pthread_mutex_unlock(ptr noundef nonnull @gres_context_lock) #28
  %.not17 = icmp eq i32 %10, 0
  br i1 %.not17, label %31, label %29

.lr.ph:                                           ; preds = %.preheader, %25
  %indvars.iv = phi i64 [ %indvars.iv.next, %25 ], [ 0, %.preheader ]
  %11 = load ptr, ptr %2, align 8
  %12 = load ptr, ptr @gres_context, align 8
  %13 = getelementptr inbounds nuw %struct.slurm_gres_context, ptr %12, i64 %indvars.iv, i32 8
  %14 = tail call ptr @list_find_first(ptr noundef %11, ptr noundef nonnull @gres_find_id, ptr noundef nonnull %13) #28
  %.not18 = icmp eq ptr %14, null
  br i1 %.not18, label %25, label %15

15:                                               ; preds = %.lr.ph
  %16 = getelementptr inbounds nuw i8, ptr %14, i64 8
  %17 = load ptr, ptr %16, align 8
  %.not19 = icmp eq ptr %17, null
  br i1 %.not19, label %25, label %18

18:                                               ; preds = %15
  %19 = getelementptr inbounds nuw i8, ptr %17, i64 16
  %20 = load i64, ptr %19, align 8
  %21 = load ptr, ptr @gres_context, align 8
  %22 = getelementptr inbounds nuw %struct.slurm_gres_context, ptr %21, i64 %indvars.iv, i32 10
  %23 = load i64, ptr %22, align 8
  %24 = sub i64 %23, %20
  store i64 %24, ptr %22, align 8
  br label %25

25:                                               ; preds = %15, %18, %.lr.ph
  %indvars.iv.next = add nuw nsw i64 %indvars.iv, 1
  %26 = load i32, ptr @gres_context_cnt, align 4
  %27 = sext i32 %26 to i64
  %28 = icmp slt i64 %indvars.iv.next, %27
  br i1 %28, label %.lr.ph, label %._crit_edge, !llvm.loop !73

29:                                               ; preds = %._crit_edge
  %30 = tail call ptr @__errno_location() #29
  store i32 %10, ptr %30, align 4
  tail call void (ptr, ...) @fatal_abort(ptr noundef nonnull @.str.16, ptr noundef nonnull @__func__.gres_node_remove) #30
  unreachable

31:                                               ; preds = %._crit_edge, %1
  ret void
}